target datalayout = "e-m:e-p270:32:32-p271:32:32-p272:64:64-i64:64-i128:128-f80:128-n8:16:32:64-S128"
target triple = "x86_64-pc-linux-gnu"

%struct.Curl_multi = type { i32, i32, i32, %struct.Curl_llist, %struct.Curl_llist, %struct.Curl_llist, %struct.Curl_llist, i64, ptr, ptr, ptr, ptr, %struct.Curl_hash, ptr, %struct.PslCache, ptr, ptr, i64, ptr, i64, ptr, i64, %struct.Curl_hash, %struct.Curl_hash, %struct.cpool, i64, i64, ptr, ptr, i64, %struct.curltime, [2 x i32], i32, i32, i8, i8 }
%struct.Curl_llist = type { ptr, ptr, ptr, i64 }
%struct.PslCache = type { ptr, i64, i8 }
%struct.Curl_hash = type { ptr, ptr, ptr, ptr, i64, i64 }
%struct.cpool = type { %struct.Curl_hash, i64, i64, i64, %struct.curltime, %struct.Curl_llist, ptr, ptr, ptr, ptr, i8 }
%struct.curltime = type { i64, i32 }
%struct.Curl_llist_node = type { ptr, ptr, ptr, ptr }
%struct.Curl_easy = type { i32, i64, i64, ptr, %struct.Curl_llist_node, %struct.Curl_llist_node, i32, i32, %struct.Curl_message, %struct.easy_pollset, %struct.Names, ptr, ptr, ptr, ptr, %struct.SingleRequest, %struct.UserDefined, ptr, ptr, ptr, %struct.Progress, %struct.UrlState, ptr, %struct.PureInfo, %struct.curl_tlssessioninfo }
%struct.Curl_message = type { %struct.Curl_llist_node, %struct.CURLMsg }
%struct.CURLMsg = type { i32, ptr, %union.anon }
%union.anon = type { ptr }
%struct.easy_pollset = type { [5 x i32], i32, [5 x i8] }
%struct.Names = type { ptr, i32 }
%struct.SingleRequest = type <{ i64, i64, i64, i64, %struct.curltime, i32, i32, i32, i32, i64, i32, i32, i8, i8, [2 x i8], i32, ptr, ptr, %struct.bufq, i64, i64, ptr, ptr, %union.anon.0, ptr, i8, i32, [3 x i8] }>
%struct.bufq = type { ptr, ptr, ptr, ptr, i64, i64, i64, i32 }
%union.anon.0 = type { ptr }
%struct.UserDefined = type <{ ptr, ptr, ptr, ptr, ptr, ptr, i64, i64, i64, ptr, ptr, i64, ptr, ptr, ptr, ptr, ptr, ptr, ptr, ptr, ptr, ptr, ptr, ptr, ptr, ptr, ptr, ptr, ptr, ptr, ptr, ptr, ptr, ptr, ptr, i64, i64, i64, i64, i64, i64, i64, i64, i64, ptr, ptr, %struct.curl_mimepart, ptr, ptr, ptr, i64, %struct.ssl_config_data, %struct.ssl_config_data, ptr, i16, i8, i8, %struct.ssl_general_config, i32, i32, i32, [4 x i8], ptr, ptr, i64, i32, i8, i8, i8, i8, ptr, ptr, ptr, i32, [4 x i8], [74 x ptr], [8 x ptr], i32, i32, i32, [4 x i8], ptr, i32, [4 x i8], ptr, ptr, ptr, ptr, ptr, i32, i32, i32, i32, i32, i32, i32, i32, i64, ptr, ptr, i64, ptr, i64, ptr, ptr, ptr, ptr, i32, i16, i16, i16, i8, i8, i8, i8, i8, i8, i8, i8, i64, [6 x i8] }>
%struct.curl_mimepart = type { ptr, ptr, i32, i32, ptr, ptr, ptr, ptr, ptr, ptr, ptr, ptr, ptr, ptr, ptr, i64, %struct.mime_state, ptr, %struct.mime_encoder_state, i64 }
%struct.mime_state = type { i32, ptr, i64 }
%struct.mime_encoder_state = type { i64, i64, i64, [256 x i8] }
%struct.ssl_config_data = type { %struct.ssl_primary_config, i64, ptr, ptr, ptr, ptr, ptr, ptr, ptr, i16 }
%struct.ssl_primary_config = type { ptr, ptr, ptr, ptr, ptr, ptr, ptr, ptr, ptr, ptr, ptr, ptr, ptr, ptr, i8, i32, i8, i8 }
%struct.ssl_general_config = type { i32 }
%struct.Progress = type { i64, %struct.pgrs_dir, %struct.pgrs_dir, i64, i64, i32, i32, i64, i64, i64, i64, i64, i64, i64, i64, i64, %struct.curltime, %struct.curltime, %struct.curltime, %struct.curltime, %struct.curltime, [6 x i64], [6 x %struct.curltime], i32, i8 }
%struct.pgrs_dir = type { i64, i64, i64, %struct.pgrs_measure }
%struct.pgrs_measure = type { %struct.curltime, i64 }
%struct.UrlState = type { %struct.curltime, i64, i64, %struct.dynbuf, ptr, i64, ptr, i32, i32, i32, ptr, i32, i64, i32, ptr, %struct.digestdata, %struct.digestdata, %struct.auth, %struct.auth, %struct.Curl_async, ptr, i8, %struct.curltime, %struct.Curl_tree, %struct.Curl_llist, [15 x %struct.time_node], ptr, ptr, i64, i64, i64, i64, [32 x i8], i64, ptr, ptr, ptr, %struct.urlpieces, ptr, ptr, ptr, ptr, ptr, i64, %struct.dynbuf, %struct.Curl_llist, [2 x %struct.curl_header], ptr, i32, ptr, ptr, %struct.store_netrc, %struct.dynamically_allocated_data, i8, i8, i8, i8, i32 }
%struct.digestdata = type { ptr, ptr, ptr, ptr, ptr, ptr, i32, i8, i8 }
%struct.auth = type { i64, i64, i64, i8 }
%struct.Curl_async = type { ptr, ptr, ptr, ptr, i32, i32, i8 }
%struct.Curl_tree = type { ptr, ptr, ptr, ptr, %struct.curltime, ptr }
%struct.time_node = type { %struct.Curl_llist_node, %struct.curltime, i32 }
%struct.urlpieces = type { ptr, ptr, ptr, ptr, ptr, ptr, ptr, ptr }
%struct.dynbuf = type { ptr, i64, i64, i64 }
%struct.curl_header = type { ptr, ptr, i64, i64, i32, ptr }
%struct.store_netrc = type { %struct.dynbuf, ptr, i8 }
%struct.dynamically_allocated_data = type { ptr, ptr, ptr, ptr, ptr, ptr, ptr, ptr, ptr, ptr, ptr, ptr, ptr, ptr }
%struct.PureInfo = type { i32, i32, i32, i64, i64, i64, i64, i64, i64, i64, ptr, ptr, i64, i32, %struct.ip_quadruple, i32, ptr, i32, %struct.curl_certinfo, i32, i8 }
%struct.ip_quadruple = type { [46 x i8], [46 x i8], i32, i32 }
%struct.curl_certinfo = type { i32, ptr }
%struct.curl_tlssessioninfo = type { i32, ptr }
%struct.sigpipe_ignore = type { %struct.sigaction, i8 }
%struct.sigaction = type { %union.anon.2, %struct.__sigset_t, i32, ptr }
%union.anon.2 = type { ptr }
%struct.__sigset_t = type { [16 x i64] }
%struct.multi_run_ctx = type { ptr, %struct.curltime, i64, %struct.sigpipe_ignore, i8 }

; Function Attrs: nounwind uwtable
define internal void @sigpipe_ignore(ptr noundef %0, ptr noundef %1) #0 {
  %3 = alloca ptr, align 8
  %4 = alloca ptr, align 8
  %5 = alloca %struct.sigaction, align 8
  store ptr %0, ptr %3, align 8, !tbaa !43
  store ptr %1, ptr %4, align 8, !tbaa !190
  %6 = load ptr, ptr %3, align 8, !tbaa !43
  %7 = getelementptr inbounds nuw %struct.Curl_easy, ptr %6, i32 0, i32 16
  %8 = getelementptr inbounds nuw %struct.UserDefined, ptr %7, i32 0, i32 119
  %9 = load i64, ptr %8, align 2
  %10 = lshr i64 %9, 34
  %11 = and i64 %10, 1
  %12 = trunc i64 %11 to i32
  %13 = icmp ne i32 %12, 0
  %14 = load ptr, ptr %4, align 8, !tbaa !190
  %15 = getelementptr inbounds nuw %struct.sigpipe_ignore, ptr %14, i32 0, i32 1
  %16 = zext i1 %13 to i8
  store i8 %16, ptr %15, align 8, !tbaa !192
  %17 = load ptr, ptr %3, align 8, !tbaa !43
  %18 = getelementptr inbounds nuw %struct.Curl_easy, ptr %17, i32 0, i32 16
  %19 = getelementptr inbounds nuw %struct.UserDefined, ptr %18, i32 0, i32 119
  %20 = load i64, ptr %19, align 2
  %21 = lshr i64 %20, 34
  %22 = and i64 %21, 1
  %23 = trunc i64 %22 to i32
  %24 = icmp ne i32 %23, 0
  br i1 %24, label %33, label %25

25:                                               ; preds = %2
  call void @llvm.lifetime.start.p0(i64 152, ptr %5) #9
  %26 = load ptr, ptr %4, align 8, !tbaa !190
  %27 = getelementptr inbounds nuw %struct.sigpipe_ignore, ptr %26, i32 0, i32 0
  %28 = call i32 @sigaction(i32 noundef 13, ptr noundef null, ptr noundef %27) #9
  %29 = load ptr, ptr %4, align 8, !tbaa !190
  %30 = getelementptr inbounds nuw %struct.sigpipe_ignore, ptr %29, i32 0, i32 0
  call void @llvm.memcpy.p0.p0.i64(ptr align 8 %5, ptr align 8 %30, i64 152, i1 false), !tbaa.struct !275
  %31 = getelementptr inbounds nuw %struct.sigaction, ptr %5, i32 0, i32 0
  store ptr inttoptr (i64 1 to ptr), ptr %31, align 8, !tbaa !104
  %32 = call i32 @sigaction(i32 noundef 13, ptr noundef %5, ptr noundef null) #9
  call void @llvm.lifetime.end.p0(i64 152, ptr %5) #9
  br label %33

33:                                               ; preds = %25, %2
  ret void
}

; Function Attrs: nounwind uwtable
define internal void @sigpipe_restore(ptr noundef %0) #0 {
  %2 = alloca ptr, align 8
  store ptr %0, ptr %2, align 8, !tbaa !190
  %3 = load ptr, ptr %2, align 8, !tbaa !190
  %4 = getelementptr inbounds nuw %struct.sigpipe_ignore, ptr %3, i32 0, i32 1
  %5 = load i8, ptr %4, align 8, !tbaa !192, !range !120, !noundef !121
  %6 = trunc i8 %5 to i1
  br i1 %6, label %11, label %7

7:                                                ; preds = %1
  %8 = load ptr, ptr %2, align 8, !tbaa !190
  %9 = getelementptr inbounds nuw %struct.sigpipe_ignore, ptr %8, i32 0, i32 0
  %10 = call i32 @sigaction(i32 noundef 13, ptr noundef %9, ptr noundef null) #9
  br label %11

11:                                               ; preds = %7, %1
  ret void
}

; Function Attrs: nounwind uwtable
define internal i32 @singlesocket(ptr noundef %0, ptr noundef %1) #0 {
  %3 = alloca ptr, align 8
  %4 = alloca ptr, align 8
  %5 = alloca %struct.easy_pollset, align 4
  %6 = alloca i32, align 4
  store ptr %0, ptr %3, align 8, !tbaa !9
  store ptr %1, ptr %4, align 8, !tbaa !43
  call void @llvm.lifetime.start.p0(i64 32, ptr %5) #9
  call void @llvm.lifetime.start.p0(i64 4, ptr %6) #9
  %7 = load ptr, ptr %4, align 8, !tbaa !43
  call void @multi_getsock(ptr noundef %7, ptr noundef %5)
  %8 = load ptr, ptr %3, align 8, !tbaa !9
  %9 = load ptr, ptr %4, align 8, !tbaa !43
  %10 = load ptr, ptr %4, align 8, !tbaa !43
  %11 = getelementptr inbounds nuw %struct.Curl_easy, ptr %10, i32 0, i32 9
  %12 = call i32 @Curl_multi_pollset_ev(ptr noundef %8, ptr noundef %9, ptr noundef %5, ptr noundef %11)
  store i32 %12, ptr %6, align 4, !tbaa !30
  %13 = load i32, ptr %6, align 4, !tbaa !30
  %14 = icmp ne i32 %13, 0
  br i1 %14, label %18, label %15

15:                                               ; preds = %2
  %16 = load ptr, ptr %4, align 8, !tbaa !43
  %17 = getelementptr inbounds nuw %struct.Curl_easy, ptr %16, i32 0, i32 9
  call void @llvm.memcpy.p0.p0.i64(ptr align 8 %17, ptr align 4 %5, i64 32, i1 false)
  br label %18

18:                                               ; preds = %15, %2
  %19 = load i32, ptr %6, align 4, !tbaa !30
  call void @llvm.lifetime.end.p0(i64 4, ptr %6) #9
  call void @llvm.lifetime.end.p0(i64 32, ptr %5) #9
  ret i32 %19
}

; Function Attrs: nounwind uwtable
define internal void @sigpipe_apply(ptr noundef %0, ptr noundef %1) #0 {
  %3 = alloca ptr, align 8
  %4 = alloca ptr, align 8
  store ptr %0, ptr %3, align 8, !tbaa !43
  store ptr %1, ptr %4, align 8, !tbaa !190
  %5 = load ptr, ptr %3, align 8, !tbaa !43
  %6 = getelementptr inbounds nuw %struct.Curl_easy, ptr %5, i32 0, i32 16
  %7 = getelementptr inbounds nuw %struct.UserDefined, ptr %6, i32 0, i32 119
  %8 = load i64, ptr %7, align 2
  %9 = lshr i64 %8, 34
  %10 = and i64 %9, 1
  %11 = trunc i64 %10 to i32
  %12 = load ptr, ptr %4, align 8, !tbaa !190
  %13 = getelementptr inbounds nuw %struct.sigpipe_ignore, ptr %12, i32 0, i32 1
  %14 = load i8, ptr %13, align 8, !tbaa !192, !range !120, !noundef !121
  %15 = trunc i8 %14 to i1
  %16 = zext i1 %15 to i32
  %17 = icmp ne i32 %11, %16
  br i1 %17, label %18, label %22

18:                                               ; preds = %2
  %19 = load ptr, ptr %4, align 8, !tbaa !190
  call void @sigpipe_restore(ptr noundef %19)
  %20 = load ptr, ptr %3, align 8, !tbaa !43
  %21 = load ptr, ptr %4, align 8, !tbaa !190
  call void @sigpipe_ignore(ptr noundef %20, ptr noundef %21)
  br label %22

22:                                               ; preds = %18, %2
  ret void
}

; Function Attrs: nounwind uwtable
define internal i32 @multi_run_expired(ptr noundef %0) #0 {
  %2 = alloca ptr, align 8
  %3 = alloca ptr, align 8
  %4 = alloca ptr, align 8
  %5 = alloca ptr, align 8
  %6 = alloca i32, align 4
  store ptr %0, ptr %2, align 8, !tbaa !299
  call void @llvm.lifetime.start.p0(i64 8, ptr %3) #9
  %7 = load ptr, ptr %2, align 8, !tbaa !299
  %8 = getelementptr inbounds nuw %struct.multi_run_ctx, ptr %7, i32 0, i32 0
  %9 = load ptr, ptr %8, align 8, !tbaa !239
  store ptr %9, ptr %3, align 8, !tbaa !9
  call void @llvm.lifetime.start.p0(i64 8, ptr %4) #9
  store ptr null, ptr %4, align 8, !tbaa !43
  call void @llvm.lifetime.start.p0(i64 8, ptr %5) #9
  store ptr null, ptr %5, align 8, !tbaa !186
  call void @llvm.lifetime.start.p0(i64 4, ptr %6) #9
  store i32 0, ptr %6, align 4, !tbaa !30
  br label %10

10:                                               ; preds = %75, %49, %32, %1
  br label %11

11:                                               ; preds = %10
  %12 = load ptr, ptr %2, align 8, !tbaa !299
  %13 = getelementptr inbounds nuw %struct.multi_run_ctx, ptr %12, i32 0, i32 1
  %14 = load ptr, ptr %3, align 8, !tbaa !9
  %15 = getelementptr inbounds nuw %struct.Curl_multi, ptr %14, i32 0, i32 15
  %16 = load ptr, ptr %15, align 8, !tbaa !150
  %17 = getelementptr inbounds nuw { i64, i32 }, ptr %13, i32 0, i32 0
  %18 = load i64, ptr %17, align 8
  %19 = getelementptr inbounds nuw { i64, i32 }, ptr %13, i32 0, i32 1
  %20 = load i32, ptr %19, align 8
  %21 = call ptr @Curl_splaygetbest(i64 %18, i32 %20, ptr noundef %16, ptr noundef %5)
  %22 = load ptr, ptr %3, align 8, !tbaa !9
  %23 = getelementptr inbounds nuw %struct.Curl_multi, ptr %22, i32 0, i32 15
  store ptr %21, ptr %23, align 8, !tbaa !150
  %24 = load ptr, ptr %5, align 8, !tbaa !186
  %25 = icmp ne ptr %24, null
  br i1 %25, label %27, label %26

26:                                               ; preds = %11
  br label %76

27:                                               ; preds = %11
  %28 = load ptr, ptr %5, align 8, !tbaa !186
  %29 = call ptr @Curl_splayget(ptr noundef %28)
  store ptr %29, ptr %4, align 8, !tbaa !43
  %30 = load ptr, ptr %4, align 8, !tbaa !43
  %31 = icmp ne ptr %30, null
  br i1 %31, label %33, label %32

32:                                               ; preds = %27
  br label %10

33:                                               ; preds = %27
  %34 = load ptr, ptr %2, align 8, !tbaa !299
  %35 = getelementptr inbounds nuw %struct.multi_run_ctx, ptr %34, i32 0, i32 1
  %36 = load ptr, ptr %3, align 8, !tbaa !9
  %37 = load ptr, ptr %4, align 8, !tbaa !43
  %38 = getelementptr inbounds nuw { i64, i32 }, ptr %35, i32 0, i32 0
  %39 = load i64, ptr %38, align 8
  %40 = getelementptr inbounds nuw { i64, i32 }, ptr %35, i32 0, i32 1
  %41 = load i32, ptr %40, align 8
  %42 = call i32 @add_next_timeout(i64 %39, i32 %41, ptr noundef %36, ptr noundef %37)
  %43 = load ptr, ptr %4, align 8, !tbaa !43
  %44 = load ptr, ptr %3, align 8, !tbaa !9
  %45 = getelementptr inbounds nuw %struct.Curl_multi, ptr %44, i32 0, i32 24
  %46 = getelementptr inbounds nuw %struct.cpool, ptr %45, i32 0, i32 6
  %47 = load ptr, ptr %46, align 8, !tbaa !187
  %48 = icmp eq ptr %43, %47
  br i1 %48, label %49, label %52

49:                                               ; preds = %33
  %50 = load ptr, ptr %2, align 8, !tbaa !299
  %51 = getelementptr inbounds nuw %struct.multi_run_ctx, ptr %50, i32 0, i32 4
  store i8 1, ptr %51, align 8, !tbaa !242
  br label %10

52:                                               ; preds = %33
  %53 = load ptr, ptr %2, align 8, !tbaa !299
  %54 = getelementptr inbounds nuw %struct.multi_run_ctx, ptr %53, i32 0, i32 2
  %55 = load i64, ptr %54, align 8, !tbaa !244
  %56 = add i64 %55, 1
  store i64 %56, ptr %54, align 8, !tbaa !244
  %57 = load ptr, ptr %4, align 8, !tbaa !43
  %58 = load ptr, ptr %2, align 8, !tbaa !299
  %59 = getelementptr inbounds nuw %struct.multi_run_ctx, ptr %58, i32 0, i32 3
  call void @sigpipe_apply(ptr noundef %57, ptr noundef %59)
  %60 = load ptr, ptr %3, align 8, !tbaa !9
  %61 = load ptr, ptr %2, align 8, !tbaa !299
  %62 = getelementptr inbounds nuw %struct.multi_run_ctx, ptr %61, i32 0, i32 1
  %63 = load ptr, ptr %4, align 8, !tbaa !43
  %64 = call i32 @multi_runsingle(ptr noundef %60, ptr noundef %62, ptr noundef %63)
  store i32 %64, ptr %6, align 4, !tbaa !30
  %65 = load i32, ptr %6, align 4, !tbaa !30
  %66 = icmp sge i32 0, %65
  br i1 %66, label %67, label %75

67:                                               ; preds = %52
  %68 = load ptr, ptr %3, align 8, !tbaa !9
  %69 = load ptr, ptr %4, align 8, !tbaa !43
  %70 = call i32 @singlesocket(ptr noundef %68, ptr noundef %69)
  store i32 %70, ptr %6, align 4, !tbaa !30
  %71 = load i32, ptr %6, align 4, !tbaa !30
  %72 = icmp ne i32 %71, 0
  br i1 %72, label %73, label %74

73:                                               ; preds = %67
  br label %76

74:                                               ; preds = %67
  br label %75

75:                                               ; preds = %74, %52
  br label %10

76:                                               ; preds = %73, %26
  %77 = load i32, ptr %6, align 4, !tbaa !30
  call void @llvm.lifetime.end.p0(i64 4, ptr %6) #9
  call void @llvm.lifetime.end.p0(i64 8, ptr %5) #9
  call void @llvm.lifetime.end.p0(i64 8, ptr %4) #9
  call void @llvm.lifetime.end.p0(i64 8, ptr %3) #9
  ret i32 %77
}