; Function Attrs: nounwind uwtable
define internal fastcc range(i32 0, 12) i32 @multi_run_expired(ptr noundef nonnull %0) unnamed_addr #0 {
  %2 = alloca %struct.easy_pollset, align 4
  %3 = alloca %struct.sigaction, align 8
  %4 = alloca ptr, align 8
  %5 = load ptr, ptr %0, align 8, !tbaa !226
  call void @llvm.lifetime.start.p0(i64 8, ptr nonnull %4) #19
  store ptr null, ptr %4, align 8, !tbaa !165
  %6 = getelementptr inbounds nuw i8, ptr %0, i64 8
  %7 = getelementptr inbounds nuw i8, ptr %5, i64 264
  %8 = getelementptr inbounds nuw i8, ptr %0, i64 16
  %9 = load ptr, ptr %7, align 8, !tbaa !137
  %10 = load i64, ptr %6, align 8
  %11 = load i32, ptr %8, align 8
  %12 = call ptr @Curl_splaygetbest(i64 %10, i32 %11, ptr noundef %9, ptr noundef nonnull %4) #19
  store ptr %12, ptr %7, align 8, !tbaa !137
  %13 = load ptr, ptr %4, align 8, !tbaa !165
  %.not3234 = icmp eq ptr %13, null
  br i1 %.not3234, label %.loopexit, label %.lr.ph.lr.ph

.lr.ph.lr.ph:                                     ; preds = %1
  %14 = getelementptr inbounds nuw i8, ptr %5, i64 536
  %15 = getelementptr inbounds nuw i8, ptr %0, i64 192
  %16 = getelementptr inbounds nuw i8, ptr %0, i64 24
  %17 = getelementptr inbounds nuw i8, ptr %0, i64 32
  %18 = getelementptr inbounds nuw i8, ptr %0, i64 184
  br label %.lr.ph

.lr.ph:                                           ; preds = %.lr.ph.lr.ph, %.outer
  %19 = phi ptr [ %13, %.lr.ph.lr.ph ], [ %64, %.outer ]
  %.0.ph35 = phi i32 [ 0, %.lr.ph.lr.ph ], [ %55, %.outer ]
  br label %20

20:                                               ; preds = %.lr.ph, %.backedge
  %21 = phi ptr [ %19, %.lr.ph ], [ %33, %.backedge ]
  %22 = call ptr @Curl_splayget(ptr noundef nonnull %21) #19
  %.not26 = icmp eq ptr %22, null
  br i1 %.not26, label %.backedge, label %23

23:                                               ; preds = %20
  %24 = load i64, ptr %6, align 8
  %25 = load i32, ptr %8, align 8
  call fastcc void @add_next_timeout(i64 %24, i32 %25, ptr noundef nonnull %5, ptr noundef nonnull %22)
  %26 = load ptr, ptr %14, align 8, !tbaa !170
  %27 = icmp eq ptr %22, %26
  br i1 %27, label %28, label %34

28:                                               ; preds = %23
  store i8 1, ptr %15, align 8, !tbaa !229
  br label %.backedge

.backedge:                                        ; preds = %28, %20
  %29 = load ptr, ptr %7, align 8, !tbaa !137
  %30 = load i64, ptr %6, align 8
  %31 = load i32, ptr %8, align 8
  %32 = call ptr @Curl_splaygetbest(i64 %30, i32 %31, ptr noundef %29, ptr noundef nonnull %4) #19
  store ptr %32, ptr %7, align 8, !tbaa !137
  %33 = load ptr, ptr %4, align 8, !tbaa !165
  %.not = icmp eq ptr %33, null
  br i1 %.not, label %.loopexit, label %20

34:                                               ; preds = %23
  %35 = load i64, ptr %16, align 8, !tbaa !254
  %36 = add i64 %35, 1
  store i64 %36, ptr %16, align 8, !tbaa !254
  %37 = getelementptr inbounds nuw i8, ptr %22, i64 2658
  %38 = load i64, ptr %37, align 2
  %39 = lshr i64 %38, 34
  %40 = trunc nuw nsw i64 %39 to i32
  %41 = and i32 %40, 1
  %42 = load i8, ptr %18, align 8, !tbaa !166, !range !171, !noundef !172
  %43 = zext nneg i8 %42 to i32
  %.not.i = icmp eq i32 %41, %43
  br i1 %.not.i, label %sigpipe_apply.exit, label %44

44:                                               ; preds = %34
  %45 = trunc nuw i8 %42 to i1
  br i1 %45, label %sigpipe_restore.exit.i, label %46

46:                                               ; preds = %44
  %47 = call i32 @sigaction(i32 noundef 13, ptr noundef nonnull %17, ptr noundef null) #19
  %.pre.i = load i64, ptr %37, align 2
  %.pre5.i = lshr i64 %.pre.i, 34
  br label %sigpipe_restore.exit.i

sigpipe_restore.exit.i:                           ; preds = %46, %44
  %.pre-phi.i = phi i64 [ %39, %44 ], [ %.pre5.i, %46 ]
  %48 = trunc i64 %.pre-phi.i to i8
  %49 = and i8 %48, 1
  store i8 %49, ptr %18, align 8, !tbaa !166
  %50 = load i64, ptr %37, align 2
  %51 = and i64 %50, 17179869184
  %.not.i.i = icmp eq i64 %51, 0
  br i1 %.not.i.i, label %52, label %sigpipe_apply.exit

52:                                               ; preds = %sigpipe_restore.exit.i
  call void @llvm.lifetime.start.p0(i64 152, ptr nonnull %3) #19
  %53 = call i32 @sigaction(i32 noundef 13, ptr noundef null, ptr noundef nonnull %17) #19
  call void @llvm.memcpy.p0.p0.i64(ptr noundef nonnull align 8 dereferenceable(152) %3, ptr noundef nonnull align 8 dereferenceable(152) %17, i64 152, i1 false), !tbaa.struct !173
  store ptr inttoptr (i64 1 to ptr), ptr %3, align 8, !tbaa !96
  %54 = call i32 @sigaction(i32 noundef 13, ptr noundef nonnull %3, ptr noundef null) #19
  call void @llvm.lifetime.end.p0(i64 152, ptr nonnull %3) #19
  br label %sigpipe_apply.exit

sigpipe_apply.exit:                               ; preds = %34, %sigpipe_restore.exit.i, %52
  %55 = call fastcc i32 @multi_runsingle(ptr noundef nonnull %5, ptr noundef %6, ptr noundef nonnull %22)
  %56 = icmp eq i32 %55, 0
  br i1 %56, label %57, label %.outer

57:                                               ; preds = %sigpipe_apply.exit
  call void @llvm.lifetime.start.p0(i64 32, ptr nonnull %2) #19
  call fastcc void @multi_getsock(ptr noundef nonnull %22, ptr noundef nonnull %2)
  %58 = getelementptr inbounds nuw i8, ptr %22, i64 160
  %59 = call i32 @Curl_multi_pollset_ev(ptr noundef nonnull %5, ptr noundef nonnull %22, ptr noundef nonnull %2, ptr noundef nonnull %58)
  %.not.i28 = icmp eq i32 %59, 0
  br i1 %.not.i28, label %singlesocket.exit.thread, label %singlesocket.exit

singlesocket.exit.thread:                         ; preds = %57
  call void @llvm.memcpy.p0.p0.i64(ptr noundef nonnull align 8 dereferenceable(32) %58, ptr noundef nonnull align 4 dereferenceable(32) %2, i64 32, i1 false)
  call void @llvm.lifetime.end.p0(i64 32, ptr nonnull %2) #19
  br label %.outer

singlesocket.exit:                                ; preds = %57
  call void @llvm.lifetime.end.p0(i64 32, ptr nonnull %2) #19
  br label %.loopexit

.outer:                                           ; preds = %singlesocket.exit.thread, %sigpipe_apply.exit
  %60 = load ptr, ptr %7, align 8, !tbaa !137
  %61 = load i64, ptr %6, align 8
  %62 = load i32, ptr %8, align 8
  %63 = call ptr @Curl_splaygetbest(i64 %61, i32 %62, ptr noundef %60, ptr noundef nonnull %4) #19
  store ptr %63, ptr %7, align 8, !tbaa !137
  %64 = load ptr, ptr %4, align 8, !tbaa !165
  %.not32 = icmp eq ptr %64, null
  br i1 %.not32, label %.loopexit, label %.lr.ph

.loopexit:                                        ; preds = %.outer, %.backedge, %1, %singlesocket.exit
  %.1 = phi i32 [ %59, %singlesocket.exit ], [ 0, %1 ], [ %.0.ph35, %.backedge ], [ %55, %.outer ]
  call void @llvm.lifetime.end.p0(i64 8, ptr nonnull %4) #19
  ret i32 %.1
}